; ModuleID = '55/18.c'
source_filename = "55/18.c"
target datalayout = "e-m:e-p270:32:32-p271:32:32-p272:64:64-i64:64-f80:128-n8:16:32:64-S128"
target triple = "x86_64-pc-linux-gnu"

@.str = private unnamed_addr constant [9 x i8] c"%d %s %d\00", align 1
@.str.1 = private unnamed_addr constant [3 x i8] c"%c\00", align 1
@.str.2 = private unnamed_addr constant [2 x i8] c"\0A\00", align 1

; Function Attrs: noinline nounwind uwtable
define dso_local i32 @char_to_num(i8 signext %0) #0 {
  %2 = alloca i32, align 4
  %3 = alloca i8, align 1
  store i8 %0, i8* %3, align 1
  %4 = load i8, i8* %3, align 1
  %5 = sext i8 %4 to i32
  %6 = icmp sle i32 48, %5
  br i1 %6, label %7, label %15

7:                                                ; preds = %1
  %8 = load i8, i8* %3, align 1
  %9 = sext i8 %8 to i32
  %10 = icmp sle i32 %9, 57
  br i1 %10, label %11, label %15

11:                                               ; preds = %7
  %12 = load i8, i8* %3, align 1
  %13 = sext i8 %12 to i32
  %14 = sub nsw i32 %13, 48
  store i32 %14, i32* %2, align 4
  br label %41

15:                                               ; preds = %7, %1
  %16 = load i8, i8* %3, align 1
  %17 = sext i8 %16 to i32
  %18 = icmp sle i32 97, %17
  br i1 %18, label %19, label %28

19:                                               ; preds = %15
  %20 = load i8, i8* %3, align 1
  %21 = sext i8 %20 to i32
  %22 = icmp sle i32 %21, 122
  br i1 %22, label %23, label %28

23:                                               ; preds = %19
  %24 = load i8, i8* %3, align 1
  %25 = sext i8 %24 to i32
  %26 = sub nsw i32 %25, 97
  %27 = add nsw i32 10, %26
  store i32 %27, i32* %2, align 4
  br label %41

28:                                               ; preds = %19, %15
  %29 = load i8, i8* %3, align 1
  %30 = sext i8 %29 to i32
  %31 = icmp sle i32 65, %30
  br i1 %31, label %32, label %41

32:                                               ; preds = %28
  %33 = load i8, i8* %3, align 1
  %34 = sext i8 %33 to i32
  %35 = icmp sle i32 %34, 90
  br i1 %35, label %36, label %41

36:                                               ; preds = %32
  %37 = load i8, i8* %3, align 1
  %38 = sext i8 %37 to i32
  %39 = sub nsw i32 %38, 65
  %40 = add nsw i32 10, %39
  store i32 %40, i32* %2, align 4
  br label %41

41:                                               ; preds = %11, %23, %36, %32, %28
  %42 = load i32, i32* %2, align 4
  ret i32 %42
}

; Function Attrs: noinline nounwind uwtable
define dso_local signext i8 @num_to_char(i32 %0) #0 {
  %2 = alloca i8, align 1
  %3 = alloca i32, align 4
  store i32 %0, i32* %3, align 4
  %4 = load i32, i32* %3, align 4
  %5 = icmp slt i32 %4, 10
  br i1 %5, label %6, label %10

6:                                                ; preds = %1
  %7 = load i32, i32* %3, align 4
  %8 = add nsw i32 %7, 48
  %9 = trunc i32 %8 to i8
  store i8 %9, i8* %2, align 1
  br label %15

10:                                               ; preds = %1
  %11 = load i32, i32* %3, align 4
  %12 = sub nsw i32 %11, 10
  %13 = add nsw i32 %12, 65
  %14 = trunc i32 %13 to i8
  store i8 %14, i8* %2, align 1
  br label %15

15:                                               ; preds = %10, %6
  %16 = load i8, i8* %2, align 1
  ret i8 %16
}

; Function Attrs: noinline nounwind uwtable
define dso_local i32 @main() #0 {
  %1 = alloca i32, align 4
  %2 = alloca i32, align 4
  %3 = alloca i32, align 4
  %4 = alloca i32, align 4
  %5 = alloca i32, align 4
  %6 = alloca [100 x i8], align 16
  %7 = alloca i64, align 8
  %8 = alloca i64, align 8
  store i32 0, i32* %1, align 4
  %9 = getelementptr inbounds [100 x i8], [100 x i8]* %6, i64 0, i64 0
  %10 = call i32 (i8*, ...) @__isoc99_scanf(i8* getelementptr inbounds ([9 x i8], [9 x i8]* @.str, i64 0, i64 0), i32* %2, i8* %9, i32* %3)
  %11 = getelementptr inbounds [100 x i8], [100 x i8]* %6, i64 0, i64 0
  %12 = call i64 @strlen(i8* %11) #3
  %13 = trunc i64 %12 to i32
  store i32 %13, i32* %5, align 4
  store i64 1, i64* %8, align 8
  store i64 0, i64* %7, align 8
  %14 = load i32, i32* %5, align 4
  %15 = sub nsw i32 %14, 1
  store i32 %15, i32* %4, align 4
  br label %16

16:                                               ; preds = %34, %0
  %17 = load i32, i32* %4, align 4
  %18 = icmp sge i32 %17, 0
  br i1 %18, label %19, label %37

19:                                               ; preds = %16
  %20 = load i64, i64* %7, align 8
  %21 = load i32, i32* %4, align 4
  %22 = sext i32 %21 to i64
  %23 = getelementptr inbounds [100 x i8], [100 x i8]* %6, i64 0, i64 %22
  %24 = load i8, i8* %23, align 1
  %25 = call i32 @char_to_num(i8 signext %24)
  %26 = sext i32 %25 to i64
  %27 = load i64, i64* %8, align 8
  %28 = mul nsw i64 %26, %27
  %29 = add nsw i64 %20, %28
  store i64 %29, i64* %7, align 8
  %30 = load i64, i64* %8, align 8
  %31 = load i32, i32* %2, align 4
  %32 = sext i32 %31 to i64
  %33 = mul nsw i64 %30, %32
  store i64 %33, i64* %8, align 8
  br label %34

34:                                               ; preds = %19
  %35 = load i32, i32* %4, align 4
  %36 = add nsw i32 %35, -1
  store i32 %36, i32* %4, align 4
  br label %16

37:                                               ; preds = %16
  store i32 0, i32* %4, align 4
  br label %38

38:                                               ; preds = %59, %37
  %39 = load i32, i32* %4, align 4
  %40 = icmp slt i32 %39, 100
  br i1 %40, label %41, label %62

41:                                               ; preds = %38
  %42 = load i64, i64* %7, align 8
  %43 = load i32, i32* %3, align 4
  %44 = sext i32 %43 to i64
  %45 = srem i64 %42, %44
  %46 = trunc i64 %45 to i32
  %47 = call signext i8 @num_to_char(i32 %46)
  %48 = load i32, i32* %4, align 4
  %49 = sext i32 %48 to i64
  %50 = getelementptr inbounds [100 x i8], [100 x i8]* %6, i64 0, i64 %49
  store i8 %47, i8* %50, align 1
  %51 = load i64, i64* %7, align 8
  %52 = load i32, i32* %3, align 4
  %53 = sext i32 %52 to i64
  %54 = sdiv i64 %51, %53
  store i64 %54, i64* %7, align 8
  %55 = load i64, i64* %7, align 8
  %56 = icmp eq i64 %55, 0
  br i1 %56, label %57, label %58

57:                                               ; preds = %41
  br label %62

58:                                               ; preds = %41
  br label %59

59:                                               ; preds = %58
  %60 = load i32, i32* %4, align 4
  %61 = add nsw i32 %60, 1
  store i32 %61, i32* %4, align 4
  br label %38

62:                                               ; preds = %57, %38
  br label %63

63:                                               ; preds = %73, %62
  %64 = load i32, i32* %4, align 4
  %65 = icmp sge i32 %64, 0
  br i1 %65, label %66, label %76

66:                                               ; preds = %63
  %67 = load i32, i32* %4, align 4
  %68 = sext i32 %67 to i64
  %69 = getelementptr inbounds [100 x i8], [100 x i8]* %6, i64 0, i64 %68
  %70 = load i8, i8* %69, align 1
  %71 = sext i8 %70 to i32
  %72 = call i32 (i8*, ...) @printf(i8* getelementptr inbounds ([3 x i8], [3 x i8]* @.str.1, i64 0, i64 0), i32 %71)
  br label %73

73:                                               ; preds = %66
  %74 = load i32, i32* %4, align 4
  %75 = add nsw i32 %74, -1
  store i32 %75, i32* %4, align 4
  br label %63

76:                                               ; preds = %63
  %77 = call i32 (i8*, ...) @printf(i8* getelementptr inbounds ([2 x i8], [2 x i8]* @.str.2, i64 0, i64 0))
  ret i32 0
}

declare dso_local i32 @__isoc99_scanf(i8*, ...) #1

; Function Attrs: nounwind readonly
declare dso_local i64 @strlen(i8*) #2

declare dso_local i32 @printf(i8*, ...) #1


!llvm.module.flags = !{!0}
!llvm.ident = !{!1}

!0 = !{i32 1, !"wchar_size", i32 4}
!1 = !{!"clang version 10.0.0-4ubuntu1 "}
